; Function Attrs: nounwind uwtable
define ptr @l_Lake_InputFileConfig_text___proj___elambda__3(ptr readnone captures(none) %0, i8 noundef zeroext %1, ptr noundef %2) local_unnamed_addr #1 {
  %.val = load i32, ptr %2, align 4, !tbaa !8
  %4 = icmp eq i32 %.val, 1
  br i1 %4, label %5, label %7

5:                                                ; preds = %3
  %6 = getelementptr inbounds nuw i8, ptr %2, i64 16
  store i8 %1, ptr %6, align 1, !tbaa !11
  br label %33

7:                                                ; preds = %3
  %8 = getelementptr inbounds nuw i8, ptr %2, i64 8
  %9 = load ptr, ptr %8, align 8, !tbaa !4
  %10 = ptrtoint ptr %9 to i64
  %11 = and i64 %10, 1
  %.not = icmp eq i64 %11, 0
  br i1 %.not, label %12, label %lean_inc.exit

12:                                               ; preds = %7
  %.val.i = load i32, ptr %9, align 4, !tbaa !8
  %13 = icmp sgt i32 %.val.i, 0
  br i1 %13, label %14, label %16, !prof !12

14:                                               ; preds = %12
  %15 = add nuw i32 %.val.i, 1
  store i32 %15, ptr %9, align 4, !tbaa !8
  br label %lean_inc.exit

16:                                               ; preds = %12
  %.not.i13 = icmp eq i32 %.val.i, 0
  br i1 %.not.i13, label %lean_inc.exit, label %17

17:                                               ; preds = %16
  tail call void @lean_inc_ref_cold(ptr noundef nonnull %9) #7
  br label %lean_inc.exit

lean_inc.exit:                                    ; preds = %17, %16, %14, %7
  %18 = ptrtoint ptr %2 to i64
  %19 = and i64 %18, 1
  %.not14 = icmp eq i64 %19, 0
  br i1 %.not14, label %20, label %lean_dec.exit

20:                                               ; preds = %lean_inc.exit
  %21 = load i32, ptr %2, align 4, !tbaa !8
  %22 = icmp sgt i32 %21, 1
  br i1 %22, label %23, label %25, !prof !12

23:                                               ; preds = %20
  %24 = add nsw i32 %21, -1
  store i32 %24, ptr %2, align 4, !tbaa !8
  br label %lean_dec.exit

25:                                               ; preds = %20
  %.not.i = icmp eq i32 %21, 0
  br i1 %.not.i, label %lean_dec.exit, label %26

26:                                               ; preds = %25
  tail call void @lean_dec_ref_cold(ptr noundef nonnull %2) #7
  br label %lean_dec.exit

lean_dec.exit:                                    ; preds = %26, %25, %23, %lean_inc.exit
  tail call void @lean_inc_heartbeat() #7
  %27 = tail call noalias ptr @mi_malloc_small(i64 noundef 24) #7
  %28 = icmp eq ptr %27, null
  br i1 %28, label %29, label %lean_alloc_ctor.exit

29:                                               ; preds = %lean_dec.exit
  tail call void @lean_internal_panic_out_of_memory() #8
  unreachable

lean_alloc_ctor.exit:                             ; preds = %lean_dec.exit
  %30 = getelementptr inbounds nuw i8, ptr %27, i64 4
  %31 = getelementptr inbounds nuw i8, ptr %27, i64 16
  store i64 0, ptr %31, align 8, !tbaa !13
  store i32 1, ptr %27, align 4, !tbaa !8
  store i32 65560, ptr %30, align 4
  %32 = getelementptr inbounds nuw i8, ptr %27, i64 8
  store ptr %9, ptr %32, align 8, !tbaa !4
  store i8 %1, ptr %31, align 1, !tbaa !11
  br label %33

33:                                               ; preds = %lean_alloc_ctor.exit, %5
  %.0 = phi ptr [ %2, %5 ], [ %27, %lean_alloc_ctor.exit ]
  ret ptr %.0
}